target datalayout = "e-m:e-p270:32:32-p271:32:32-p272:64:64-i64:64-i128:128-f80:128-n8:16:32:64-S128"
target triple = "x86_64-pc-linux-gnu"

%struct.sview_config_t = type { ptr, ptr, ptr, ptr, ptr, ptr, ptr, i16, i16, i8, i16, i32, i32, i32, i8, i32, i32, i32, i32, [10 x ptr], [10 x %struct.page_opts_t], [10 x i8], i16, i8, i8, i8, i8, i16, i32 }
%struct.page_opts_t = type { ptr, i8, ptr, ptr }
%struct._GtkTreeIter = type { i32, ptr, ptr, ptr }
%struct.display_data = type { i64, i32, ptr, i8, i32, ptr, ptr, ptr, ptr, ptr, ptr, ptr, ptr }
%struct._GdkEventButton = type { i32, ptr, i8, i32, double, double, ptr, i32, i32, ptr, double, double }
%struct.signal_params_t = type { ptr, ptr }

@working_sview_config = external global %struct.sview_config_t, align 8
@left_button_pressed.last_time = internal global i64 0, align 8
@left_button_pressed.last_user_data = internal global ptr null, align 8
@.str.30 = private unnamed_addr constant [45 x i8] c"left pressed, error getting iter from model\0A\00", align 1

; Function Attrs: nounwind uwtable
define dso_local i32 @left_button_pressed(ptr noundef %0, ptr noundef %1, ptr noundef %2, ptr noundef %3) #0 {
  %5 = alloca i32, align 4
  %6 = alloca ptr, align 8
  %7 = alloca ptr, align 8
  %8 = alloca ptr, align 8
  %9 = alloca ptr, align 8
  %10 = alloca i64, align 8
  %11 = alloca i32, align 4
  %12 = alloca %struct._GtkTreeIter, align 8
  %13 = alloca ptr, align 8
  %14 = alloca ptr, align 8
  %15 = alloca i32, align 4
  store ptr %0, ptr %6, align 8
  store ptr %1, ptr %7, align 8
  store ptr %2, ptr %8, align 8
  store ptr %3, ptr %9, align 8
  call void @llvm.lifetime.start.p0(i64 8, ptr %10) #11
  %16 = call i64 @time(ptr noundef null) #11
  store i64 %16, ptr %10, align 8
  call void @llvm.lifetime.start.p0(i64 4, ptr %11) #11
  store i32 0, ptr %11, align 4
  call void @llvm.lifetime.start.p0(i64 32, ptr %12) #11
  call void @llvm.lifetime.start.p0(i64 8, ptr %13) #11
  %17 = load ptr, ptr %6, align 8
  %18 = call ptr @gtk_tree_view_get_model(ptr noundef %17)
  store ptr %18, ptr %13, align 8
  call void @llvm.lifetime.start.p0(i64 8, ptr %14) #11
  %19 = load ptr, ptr %8, align 8
  %20 = getelementptr inbounds nuw %struct.signal_params_t, ptr %19, i32 0, i32 0
  %21 = load ptr, ptr %20, align 8
  store ptr %21, ptr %14, align 8
  %22 = load ptr, ptr %9, align 8
  %23 = getelementptr inbounds nuw %struct._GdkEventButton, ptr %22, i32 0, i32 7
  %24 = load i32, ptr %23, align 8
  %25 = and i32 %24, 4
  %26 = icmp ne i32 %25, 0
  br i1 %26, label %36, label %27

27:                                               ; preds = %4
  %28 = load ptr, ptr %9, align 8
  %29 = getelementptr inbounds nuw %struct._GdkEventButton, ptr %28, i32 0, i32 7
  %30 = load i32, ptr %29, align 8
  %31 = and i32 %30, 1
  %32 = icmp ne i32 %31, 0
  br i1 %32, label %36, label %33

33:                                               ; preds = %27
  %34 = load ptr, ptr %6, align 8
  %35 = load ptr, ptr %7, align 8
  call void @gtk_tree_view_set_cursor(ptr noundef %34, ptr noundef %35, ptr noundef null, i32 noundef 0)
  br label %36

36:                                               ; preds = %33, %27, %4
  %37 = load ptr, ptr %6, align 8
  %38 = call i64 @gtk_widget_get_type() #12
  %39 = call ptr @g_type_check_instance_cast(ptr noundef %37, i64 noundef %38)
  call void @gtk_widget_grab_focus(ptr noundef %39)
  %40 = load ptr, ptr %8, align 8
  %41 = getelementptr inbounds nuw %struct.signal_params_t, ptr %40, i32 0, i32 1
  %42 = load ptr, ptr %41, align 8
  %43 = icmp ne ptr %42, null
  br i1 %43, label %44, label %54

44:                                               ; preds = %36
  %45 = load ptr, ptr %14, align 8
  %46 = getelementptr inbounds nuw %struct.display_data, ptr %45, i32 0, i32 10
  %47 = load ptr, ptr %46, align 8
  %48 = load ptr, ptr %6, align 8
  %49 = load ptr, ptr %8, align 8
  %50 = getelementptr inbounds nuw %struct.signal_params_t, ptr %49, i32 0, i32 1
  %51 = load ptr, ptr %50, align 8
  %52 = load ptr, ptr %51, align 8
  %53 = load ptr, ptr %7, align 8
  call void %47(ptr noundef %48, ptr noundef %52, ptr noundef %53, i32 noundef 1)
  br label %60

54:                                               ; preds = %36
  %55 = load ptr, ptr %14, align 8
  %56 = getelementptr inbounds nuw %struct.display_data, ptr %55, i32 0, i32 10
  %57 = load ptr, ptr %56, align 8
  %58 = load ptr, ptr %6, align 8
  %59 = load ptr, ptr %7, align 8
  call void %57(ptr noundef %58, ptr noundef null, ptr noundef %59, i32 noundef 3)
  br label %60

60:                                               ; preds = %54, %44
  %61 = load ptr, ptr %13, align 8
  %62 = load ptr, ptr %7, align 8
  %63 = call i32 @gtk_tree_model_get_iter(ptr noundef %61, ptr noundef %12, ptr noundef %62)
  %64 = icmp ne i32 %63, 0
  br i1 %64, label %71, label %65

65:                                               ; preds = %60
  br label %66

66:                                               ; preds = %65
  call void (ptr, i32, ptr, ...) @g_log(ptr noundef null, i32 noundef 4, ptr noundef @.str.30)
  br label %67

67:                                               ; preds = %67, %66
  br label %67, !llvm.loop !40

68:                                               ; No predecessors!
  br label %69

69:                                               ; preds = %68
  %70 = load i32, ptr %11, align 4
  store i32 %70, ptr %5, align 4
  store i32 1, ptr %15, align 4
  br label %99

71:                                               ; preds = %60
  %72 = load i64, ptr %10, align 8
  %73 = load i64, ptr @left_button_pressed.last_time, align 8
  %74 = sub nsw i64 %72, %73
  %75 = icmp ne i64 %74, 0
  br i1 %75, label %90, label %76

76:                                               ; preds = %71
  %77 = load ptr, ptr @left_button_pressed.last_user_data, align 8
  %78 = icmp ne ptr %77, null
  br i1 %78, label %79, label %84

79:                                               ; preds = %76
  %80 = getelementptr inbounds nuw %struct._GtkTreeIter, ptr %12, i32 0, i32 1
  %81 = load ptr, ptr %80, align 8
  %82 = load ptr, ptr @left_button_pressed.last_user_data, align 8
  %83 = icmp eq ptr %81, %82
  br i1 %83, label %84, label %90

84:                                               ; preds = %79, %76
  %85 = load ptr, ptr %14, align 8
  %86 = getelementptr inbounds nuw %struct.display_data, ptr %85, i32 0, i32 10
  %87 = load ptr, ptr %86, align 8
  %88 = load ptr, ptr %6, align 8
  %89 = load ptr, ptr %7, align 8
  call void %87(ptr noundef %88, ptr noundef null, ptr noundef %89, i32 noundef 3)
  br label %90

90:                                               ; preds = %84, %79, %71
  %91 = getelementptr inbounds nuw %struct._GtkTreeIter, ptr %12, i32 0, i32 1
  %92 = load ptr, ptr %91, align 8
  store ptr %92, ptr @left_button_pressed.last_user_data, align 8
  %93 = load i8, ptr getelementptr inbounds nuw (%struct.sview_config_t, ptr @working_sview_config, i32 0, i32 9), align 4, !range !23, !noundef !24
  %94 = trunc i8 %93 to i1
  br i1 %94, label %96, label %95

95:                                               ; preds = %90
  store i32 1, ptr %11, align 4
  br label %96

96:                                               ; preds = %95, %90
  %97 = load i64, ptr %10, align 8
  store i64 %97, ptr @left_button_pressed.last_time, align 8
  %98 = load i32, ptr %11, align 4
  store i32 %98, ptr %5, align 4
  store i32 1, ptr %15, align 4
  br label %99

99:                                               ; preds = %96, %69
  call void @llvm.lifetime.end.p0(i64 8, ptr %14) #11
  call void @llvm.lifetime.end.p0(i64 8, ptr %13) #11
  call void @llvm.lifetime.end.p0(i64 32, ptr %12) #11
  call void @llvm.lifetime.end.p0(i64 4, ptr %11) #11
  call void @llvm.lifetime.end.p0(i64 8, ptr %10) #11
  %100 = load i32, ptr %5, align 4
  ret i32 %100
}