; Function Attrs: nounwind uwtable
define dso_local range(i32 0, 2) i32 @left_button_pressed(ptr noundef %0, ptr noundef %1, ptr noundef readonly captures(none) %2, ptr noundef readonly captures(none) %3) local_unnamed_addr #2 {
  %5 = alloca %struct._GtkTreeIter, align 8
  %6 = tail call i64 @time(ptr noundef null) #16
  call void @llvm.lifetime.start.p0(i64 32, ptr nonnull %5) #16
  %7 = tail call ptr @gtk_tree_view_get_model(ptr noundef %0) #16
  %8 = load ptr, ptr %2, align 8
  %9 = getelementptr inbounds nuw i8, ptr %3, i64 48
  %10 = load i32, ptr %9, align 8
  %11 = and i32 %10, 5
  %or.cond = icmp eq i32 %11, 0
  br i1 %or.cond, label %12, label %13

12:                                               ; preds = %4
  tail call void @gtk_tree_view_set_cursor(ptr noundef %0, ptr noundef %1, ptr noundef null, i32 noundef 0) #16
  br label %13

13:                                               ; preds = %12, %4
  %14 = tail call i64 @gtk_widget_get_type() #17
  %15 = tail call ptr @g_type_check_instance_cast(ptr noundef %0, i64 noundef %14) #16
  tail call void @gtk_widget_grab_focus(ptr noundef %15) #16
  %16 = getelementptr inbounds nuw i8, ptr %2, i64 8
  %17 = load ptr, ptr %16, align 8
  %.not26 = icmp eq ptr %17, null
  %18 = getelementptr inbounds nuw i8, ptr %8, i64 72
  %19 = load ptr, ptr %18, align 8
  br i1 %.not26, label %22, label %20

20:                                               ; preds = %13
  %21 = load ptr, ptr %17, align 8
  tail call void %19(ptr noundef %0, ptr noundef %21, ptr noundef %1, i32 noundef 1) #16
  br label %23

22:                                               ; preds = %13
  tail call void %19(ptr noundef %0, ptr noundef null, ptr noundef %1, i32 noundef 3) #16
  br label %23

23:                                               ; preds = %22, %20
  %24 = call i32 @gtk_tree_model_get_iter(ptr noundef %7, ptr noundef nonnull %5, ptr noundef %1) #16
  %.not27 = icmp eq i32 %24, 0
  br i1 %.not27, label %25, label %27

25:                                               ; preds = %23
  call void (ptr, i32, ptr, ...) @g_log(ptr noundef null, i32 noundef 4, ptr noundef nonnull @.str.30) #16
  br label %26

26:                                               ; preds = %26, %25
  br label %26, !llvm.loop !38

27:                                               ; preds = %23
  %28 = load i64, ptr @left_button_pressed.last_time, align 8
  %.not28 = icmp eq i64 %6, %28
  br i1 %.not28, label %29, label %37

29:                                               ; preds = %27
  %30 = load ptr, ptr @left_button_pressed.last_user_data, align 8
  %.not29 = icmp eq ptr %30, null
  %31 = getelementptr inbounds nuw i8, ptr %5, i64 8
  %32 = load ptr, ptr %31, align 8
  %33 = icmp eq ptr %32, %30
  %or.cond32 = select i1 %.not29, i1 true, i1 %33
  br i1 %or.cond32, label %34, label %37

34:                                               ; preds = %29
  %35 = getelementptr inbounds nuw i8, ptr %8, i64 72
  %36 = load ptr, ptr %35, align 8
  call void %36(ptr noundef %0, ptr noundef null, ptr noundef %1, i32 noundef 3) #16
  br label %37

37:                                               ; preds = %29, %34, %27
  %38 = getelementptr inbounds nuw i8, ptr %5, i64 8
  %39 = load ptr, ptr %38, align 8
  store ptr %39, ptr @left_button_pressed.last_user_data, align 8
  %40 = load i8, ptr getelementptr inbounds nuw (i8, ptr @working_sview_config, i64 60), align 4, !range !21, !noundef !22
  %41 = xor i8 %40, 1
  %not. = zext nneg i8 %41 to i32
  store i64 %6, ptr @left_button_pressed.last_time, align 8
  call void @llvm.lifetime.end.p0(i64 32, ptr nonnull %5) #16
  ret i32 %not.
}